target datalayout = "e-m:e-p270:32:32-p271:32:32-p272:64:64-i64:64-i128:128-f80:128-n8:16:32:64-S128"
target triple = "x86_64-pc-linux-gnu"

%struct.Vec_Int_t_ = type { i32, i32, ptr }

@.str.20 = private unnamed_addr constant [2 x i8] c"\0A\00", align 1
@.str.61 = private unnamed_addr constant [5 x i8] c" %8d\00", align 1
@.str.62 = private unnamed_addr constant [5 x i8] c"    \00", align 1
@.str.63 = private unnamed_addr constant [6 x i8] c"%2d :\00", align 1

; Function Attrs: inlinehint nounwind uwtable
define internal void @Vec_IntFree(ptr noundef %0) #4 {
  %2 = alloca ptr, align 8
  store ptr %0, ptr %2, align 8, !tbaa !73
  %3 = load ptr, ptr %2, align 8, !tbaa !73
  %4 = getelementptr inbounds nuw %struct.Vec_Int_t_, ptr %3, i32 0, i32 2
  %5 = load ptr, ptr %4, align 8, !tbaa !97
  %6 = icmp ne ptr %5, null
  br i1 %6, label %7, label %13

7:                                                ; preds = %1
  %8 = load ptr, ptr %2, align 8, !tbaa !73
  %9 = getelementptr inbounds nuw %struct.Vec_Int_t_, ptr %8, i32 0, i32 2
  %10 = load ptr, ptr %9, align 8, !tbaa !97
  call void @free(ptr noundef %10) #15
  %11 = load ptr, ptr %2, align 8, !tbaa !73
  %12 = getelementptr inbounds nuw %struct.Vec_Int_t_, ptr %11, i32 0, i32 2
  store ptr null, ptr %12, align 8, !tbaa !97
  br label %14

13:                                               ; preds = %1
  br label %14

14:                                               ; preds = %13, %7
  %15 = load ptr, ptr %2, align 8, !tbaa !73
  %16 = icmp ne ptr %15, null
  br i1 %16, label %17, label %19

17:                                               ; preds = %14
  %18 = load ptr, ptr %2, align 8, !tbaa !73
  call void @free(ptr noundef %18) #15
  store ptr null, ptr %2, align 8, !tbaa !73
  br label %20

19:                                               ; preds = %14
  br label %20

20:                                               ; preds = %19, %17
  ret void
}

; Function Attrs: nounwind uwtable
define void @Gia_ManSumEnumTest() #0 {
  %1 = alloca ptr, align 8
  %2 = alloca i32, align 4
  %3 = alloca i32, align 4
  call void @llvm.lifetime.start.p0(i64 8, ptr %1) #15
  %4 = call ptr @Gia_ManSumGenDec(i32 noundef 16)
  store ptr %4, ptr %1, align 8, !tbaa !73
  %5 = call i32 (ptr, ...) @printf(ptr noundef @.str.62)
  call void @llvm.lifetime.start.p0(i64 4, ptr %2) #15
  store i32 1, ptr %2, align 4, !tbaa !10
  br label %6

6:                                                ; preds = %13, %0
  %7 = load i32, ptr %2, align 4, !tbaa !10
  %8 = icmp sle i32 %7, 256
  br i1 %8, label %10, label %9

9:                                                ; preds = %6
  call void @llvm.lifetime.end.p0(i64 4, ptr %2) #15
  br label %16

10:                                               ; preds = %6
  %11 = load i32, ptr %2, align 4, !tbaa !10
  %12 = call i32 (ptr, ...) @printf(ptr noundef @.str.61, i32 noundef %11)
  br label %13

13:                                               ; preds = %10
  %14 = load i32, ptr %2, align 4, !tbaa !10
  %15 = shl i32 %14, 1
  store i32 %15, ptr %2, align 4, !tbaa !10
  br label %6, !llvm.loop !126

16:                                               ; preds = %9
  %17 = call i32 (ptr, ...) @printf(ptr noundef @.str.20)
  call void @llvm.lifetime.start.p0(i64 4, ptr %3) #15
  store i32 1, ptr %3, align 4, !tbaa !10
  br label %18

18:                                               ; preds = %28, %16
  %19 = load i32, ptr %3, align 4, !tbaa !10
  %20 = icmp sle i32 %19, 15
  br i1 %20, label %22, label %21

21:                                               ; preds = %18
  call void @llvm.lifetime.end.p0(i64 4, ptr %3) #15
  br label %31

22:                                               ; preds = %18
  %23 = load i32, ptr %3, align 4, !tbaa !10
  %24 = call i32 (ptr, ...) @printf(ptr noundef @.str.63, i32 noundef %23)
  %25 = load i32, ptr %3, align 4, !tbaa !10
  %26 = load ptr, ptr %1, align 8, !tbaa !73
  call void @Gia_ManSumEnum(i32 noundef %25, ptr noundef %26)
  %27 = call i32 (ptr, ...) @printf(ptr noundef @.str.20)
  br label %28

28:                                               ; preds = %22
  %29 = load i32, ptr %3, align 4, !tbaa !10
  %30 = add nsw i32 %29, 1
  store i32 %30, ptr %3, align 4, !tbaa !10
  br label %18, !llvm.loop !127

31:                                               ; preds = %21
  %32 = load ptr, ptr %1, align 8, !tbaa !73
  call void @Vec_IntFree(ptr noundef %32)
  call void @llvm.lifetime.end.p0(i64 8, ptr %1) #15
  ret void
}