; Function Attrs: nounwind uwtable
define void @Gia_ManSumEnumTest() local_unnamed_addr #0 {
  %1 = tail call ptr @Gia_ManSumGenDec(i32 noundef 16)
  %2 = tail call i32 (ptr, ...) @printf(ptr noundef nonnull dereferenceable(1) @.str.62)
  br label %4

3:                                                ; preds = %4
  %putchar = tail call i32 @putchar(i32 10)
  br label %12

4:                                                ; preds = %0, %4
  %.0810 = phi i32 [ 1, %0 ], [ %6, %4 ]
  %5 = tail call i32 (ptr, ...) @printf(ptr noundef nonnull dereferenceable(1) @.str.61, i32 noundef %.0810)
  %6 = shl i32 %.0810, 1
  %7 = icmp slt i32 %6, 257
  br i1 %7, label %4, label %3, !llvm.loop !117

8:                                                ; preds = %12
  %9 = getelementptr inbounds nuw i8, ptr %1, i64 8
  %10 = load ptr, ptr %9, align 8, !tbaa !44
  %.not.i = icmp eq ptr %10, null
  br i1 %.not.i, label %Vec_IntFree.exit, label %11

11:                                               ; preds = %8
  tail call void @free(ptr noundef nonnull %10) #21
  br label %Vec_IntFree.exit

Vec_IntFree.exit:                                 ; preds = %8, %11
  tail call void @free(ptr noundef nonnull %1) #21
  ret void

12:                                               ; preds = %3, %12
  %.011 = phi i32 [ 1, %3 ], [ %14, %12 ]
  %13 = tail call i32 (ptr, ...) @printf(ptr noundef nonnull dereferenceable(1) @.str.63, i32 noundef %.011)
  tail call void @Gia_ManSumEnum(i32 noundef %.011, ptr noundef %1)
  %putchar9 = tail call i32 @putchar(i32 10)
  %14 = add nuw nsw i32 %.011, 1
  %exitcond.not = icmp eq i32 %14, 16
  br i1 %exitcond.not, label %8, label %12, !llvm.loop !118
}